; ModuleID = '40/1628.c'
source_filename = "40/1628.c"
target datalayout = "e-m:e-p270:32:32-p271:32:32-p272:64:64-i64:64-f80:128-n8:16:32:64-S128"
target triple = "x86_64-pc-linux-gnu"

@.str = private unnamed_addr constant [16 x i8] c"%lf%lf%lf%lf%lf\00", align 1
@.str.1 = private unnamed_addr constant [14 x i8] c"Invalid input\00", align 1
@.str.2 = private unnamed_addr constant [6 x i8] c"%.4lf\00", align 1

; Function Attrs: noinline nounwind uwtable
define dso_local void @main() #0 {
  %1 = alloca double, align 8
  %2 = alloca double, align 8
  %3 = alloca double, align 8
  %4 = alloca double, align 8
  %5 = alloca double, align 8
  %6 = alloca double, align 8
  %7 = alloca double, align 8
  %8 = call i32 (i8*, ...) @__isoc99_scanf(i8* getelementptr inbounds ([16 x i8], [16 x i8]* @.str, i64 0, i64 0), double* %1, double* %2, double* %3, double* %4, double* %6)
  %9 = load double, double* %1, align 8
  %10 = load double, double* %2, align 8
  %11 = fadd double %9, %10
  %12 = load double, double* %3, align 8
  %13 = fadd double %11, %12
  %14 = load double, double* %4, align 8
  %15 = fadd double %13, %14
  %16 = fdiv double %15, 2.000000e+00
  store double %16, double* %5, align 8
  %17 = load double, double* %5, align 8
  %18 = load double, double* %1, align 8
  %19 = fsub double %17, %18
  %20 = load double, double* %5, align 8
  %21 = load double, double* %2, align 8
  %22 = fsub double %20, %21
  %23 = fmul double %19, %22
  %24 = load double, double* %5, align 8
  %25 = load double, double* %3, align 8
  %26 = fsub double %24, %25
  %27 = fmul double %23, %26
  %28 = load double, double* %5, align 8
  %29 = load double, double* %4, align 8
  %30 = fsub double %28, %29
  %31 = fmul double %27, %30
  %32 = load double, double* %1, align 8
  %33 = load double, double* %2, align 8
  %34 = fmul double %32, %33
  %35 = load double, double* %3, align 8
  %36 = fmul double %34, %35
  %37 = load double, double* %4, align 8
  %38 = fmul double %36, %37
  %39 = load double, double* %6, align 8
  %40 = fdiv double %39, 2.000000e+00
  %41 = call double @f(double %40)
  %42 = fmul double %38, %41
  %43 = load double, double* %6, align 8
  %44 = fdiv double %43, 2.000000e+00
  %45 = call double @f(double %44)
  %46 = fmul double %42, %45
  %47 = fsub double %31, %46
  store double %47, double* %7, align 8
  %48 = load double, double* %7, align 8
  %49 = fcmp olt double %48, 0.000000e+00
  br i1 %49, label %50, label %52

50:                                               ; preds = %0
  %51 = call i32 (i8*, ...) @printf(i8* getelementptr inbounds ([14 x i8], [14 x i8]* @.str.1, i64 0, i64 0))
  br label %56

52:                                               ; preds = %0
  %53 = load double, double* %7, align 8
  %54 = call double @sqrt(double %53) #3
  %55 = call i32 (i8*, ...) @printf(i8* getelementptr inbounds ([6 x i8], [6 x i8]* @.str.2, i64 0, i64 0), double %54)
  br label %56

56:                                               ; preds = %52, %50
  ret void
}

declare dso_local i32 @__isoc99_scanf(i8*, ...) #1

; Function Attrs: noinline nounwind uwtable
define dso_local double @f(double %0) #0 {
  %2 = alloca double, align 8
  %3 = alloca double, align 8
  %4 = alloca double, align 8
  store double %0, double* %2, align 8
  store double 0x400921FB4D12D84A, double* %4, align 8
  %5 = load double, double* %2, align 8
  %6 = fdiv double %5, 1.800000e+02
  %7 = load double, double* %4, align 8
  %8 = fmul double %6, %7
  %9 = call double @cos(double %8) #3
  store double %9, double* %3, align 8
  %10 = load double, double* %3, align 8
  ret double %10
}

declare dso_local i32 @printf(i8*, ...) #1

; Function Attrs: nounwind
declare dso_local double @sqrt(double) #2

; Function Attrs: nounwind
declare dso_local double @cos(double) #2


!llvm.module.flags = !{!0}
!llvm.ident = !{!1}

!0 = !{i32 1, !"wchar_size", i32 4}
!1 = !{!"clang version 10.0.0-4ubuntu1 "}
